target datalayout = "e-m:e-p270:32:32-p271:32:32-p272:64:64-i64:64-i128:128-f80:128-n8:16:32:64-S128"
target triple = "x86_64-pc-linux-gnu"

%struct.quic_tserver_args_st = type { ptr, ptr, ptr, ptr, ptr, ptr, ptr, ptr, i64 }
%struct.quic_tserver_st = type { %struct.quic_tserver_args_st, ptr, ptr, ptr, ptr, ptr, ptr, ptr, i8 }

; Function Attrs: nounwind uwtable
define i32 @ossl_quic_tserver_shutdown(ptr noundef %0, i64 noundef %1) #0 {
  %3 = alloca i32, align 4
  %4 = alloca ptr, align 8
  %5 = alloca i64, align 8
  store ptr %0, ptr %4, align 8, !tbaa !10
  store i64 %1, ptr %5, align 8, !tbaa !26
  %6 = load ptr, ptr %4, align 8, !tbaa !10
  %7 = getelementptr inbounds nuw %struct.quic_tserver_st, ptr %6, i32 0, i32 4
  %8 = load ptr, ptr %7, align 8, !tbaa !52
  %9 = load i64, ptr %5, align 8, !tbaa !26
  call void @ossl_quic_channel_local_close(ptr noundef %8, i64 noundef %9, ptr noundef null)
  %10 = load ptr, ptr %4, align 8, !tbaa !10
  %11 = getelementptr inbounds nuw %struct.quic_tserver_st, ptr %10, i32 0, i32 4
  %12 = load ptr, ptr %11, align 8, !tbaa !52
  %13 = call i32 @ossl_quic_channel_is_terminated(ptr noundef %12)
  %14 = icmp ne i32 %13, 0
  br i1 %14, label %15, label %16

15:                                               ; preds = %2
  store i32 1, ptr %3, align 4
  br label %26

16:                                               ; preds = %2
  %17 = load ptr, ptr %4, align 8, !tbaa !10
  %18 = getelementptr inbounds nuw %struct.quic_tserver_st, ptr %17, i32 0, i32 4
  %19 = load ptr, ptr %18, align 8, !tbaa !52
  %20 = call ptr @ossl_quic_channel_get_reactor(ptr noundef %19)
  %21 = call i32 @ossl_quic_reactor_tick(ptr noundef %20, i32 noundef 0)
  %22 = load ptr, ptr %4, align 8, !tbaa !10
  %23 = getelementptr inbounds nuw %struct.quic_tserver_st, ptr %22, i32 0, i32 4
  %24 = load ptr, ptr %23, align 8, !tbaa !52
  %25 = call i32 @ossl_quic_channel_is_terminated(ptr noundef %24)
  store i32 %25, ptr %3, align 4
  br label %26

26:                                               ; preds = %16, %15
  %27 = load i32, ptr %3, align 4
  ret i32 %27
}