; Function Attrs: nounwind uwtable
define i32 @ossl_quic_tserver_shutdown(ptr noundef readonly captures(none) %0, i64 noundef %1) local_unnamed_addr #0 {
  %3 = getelementptr inbounds nuw i8, ptr %0, i64 96
  %4 = load ptr, ptr %3, align 8, !tbaa !46
  tail call void @ossl_quic_channel_local_close(ptr noundef %4, i64 noundef %1, ptr noundef null) #6
  %5 = load ptr, ptr %3, align 8, !tbaa !46
  %6 = tail call i32 @ossl_quic_channel_is_terminated(ptr noundef %5) #6
  %.not = icmp eq i32 %6, 0
  br i1 %.not, label %7, label %13

7:                                                ; preds = %2
  %8 = load ptr, ptr %3, align 8, !tbaa !46
  %9 = tail call ptr @ossl_quic_channel_get_reactor(ptr noundef %8) #6
  %10 = tail call i32 @ossl_quic_reactor_tick(ptr noundef %9, i32 noundef 0) #6
  %11 = load ptr, ptr %3, align 8, !tbaa !46
  %12 = tail call i32 @ossl_quic_channel_is_terminated(ptr noundef %11) #6
  br label %13

13:                                               ; preds = %2, %7
  %.0 = phi i32 [ %12, %7 ], [ 1, %2 ]
  ret i32 %.0
}